
int.elf:     file format elf32-littlearm


Disassembly of section .text:

87800000 <_start>:
87800000:	e59ff138 	ldr	pc, [pc, #312]	; 87800140 <FIQ_Handler+0x8>
87800004:	e59ff138 	ldr	pc, [pc, #312]	; 87800144 <FIQ_Handler+0xc>
87800008:	e59ff138 	ldr	pc, [pc, #312]	; 87800148 <FIQ_Handler+0x10>
8780000c:	e59ff138 	ldr	pc, [pc, #312]	; 8780014c <FIQ_Handler+0x14>
87800010:	e59ff138 	ldr	pc, [pc, #312]	; 87800150 <FIQ_Handler+0x18>
87800014:	e59ff138 	ldr	pc, [pc, #312]	; 87800154 <FIQ_Handler+0x1c>
87800018:	e59ff138 	ldr	pc, [pc, #312]	; 87800158 <FIQ_Handler+0x20>
8780001c:	e59ff138 	ldr	pc, [pc, #312]	; 8780015c <FIQ_Handler+0x24>

87800020 <Reset_Handler>:
87800020:	f10c0080 	cpsid	i
87800024:	ee110f10 	mrc	15, 0, r0, cr1, cr0, {0}
87800028:	e3c00a01 	bic	r0, r0, #4096	; 0x1000
8780002c:	e3c00b02 	bic	r0, r0, #2048	; 0x800
87800030:	e3c00004 	bic	r0, r0, #4
87800034:	e3c00002 	bic	r0, r0, #2
87800038:	e3c00001 	bic	r0, r0, #1
8780003c:	ee010f10 	mcr	15, 0, r0, cr1, cr0, {0}
87800040:	e59f0118 	ldr	r0, [pc, #280]	; 87800160 <FIQ_Handler+0x28>
87800044:	f57ff04f 	dsb	sy
87800048:	f57ff06f 	isb	sy
8780004c:	ee0c0f10 	mcr	15, 0, r0, cr12, cr0, {0}
87800050:	f57ff04f 	dsb	sy
87800054:	f57ff06f 	isb	sy

87800058 <_bss_start>:
87800058:	878007f0 			; <UNDEFINED> instruction: 0x878007f0

8780005c <_bss_end>:
8780005c:	87800cfd 			; <UNDEFINED> instruction: 0x87800cfd
87800060:	e10f0000 	mrs	r0, CPSR
87800064:	e3c0001f 	bic	r0, r0, #31
87800068:	e3800012 	orr	r0, r0, #18
8780006c:	e129f000 	msr	CPSR_fc, r0
87800070:	e59fd0ec 	ldr	sp, [pc, #236]	; 87800164 <FIQ_Handler+0x2c>
87800074:	e10f0000 	mrs	r0, CPSR
87800078:	e3c0001f 	bic	r0, r0, #31
8780007c:	e380001f 	orr	r0, r0, #31
87800080:	e129f000 	msr	CPSR_fc, r0
87800084:	e59fd0dc 	ldr	sp, [pc, #220]	; 87800168 <FIQ_Handler+0x30>
87800088:	e10f0000 	mrs	r0, CPSR
8780008c:	e3c0001f 	bic	r0, r0, #31
87800090:	e3800013 	orr	r0, r0, #19
87800094:	e129f000 	msr	CPSR_fc, r0
87800098:	e59fd0cc 	ldr	sp, [pc, #204]	; 8780016c <FIQ_Handler+0x34>
8780009c:	e51f004c 	ldr	r0, [pc, #-76]	; 87800058 <_bss_start>
878000a0:	e51f104c 	ldr	r1, [pc, #-76]	; 8780005c <_bss_end>
878000a4:	e3a02000 	mov	r2, #0

878000a8 <bss_loop>:
878000a8:	e8a00004 	stmia	r0!, {r2}
878000ac:	e1500001 	cmp	r0, r1
878000b0:	dafffffc 	ble	878000a8 <bss_loop>
878000b4:	f1080080 	cpsie	i
878000b8:	ea0001ba 	b	878007a8 <__main_from_arm>

878000bc <Undefined_Handler>:
878000bc:	e59f0080 	ldr	r0, [pc, #128]	; 87800144 <FIQ_Handler+0xc>
878000c0:	e12fff10 	bx	r0

878000c4 <SVC_Handler>:
878000c4:	e59f007c 	ldr	r0, [pc, #124]	; 87800148 <FIQ_Handler+0x10>
878000c8:	e12fff10 	bx	r0

878000cc <PreAbort_Handler>:
878000cc:	e59f0078 	ldr	r0, [pc, #120]	; 8780014c <FIQ_Handler+0x14>
878000d0:	e12fff10 	bx	r0

878000d4 <DataAbort_Handler>:
878000d4:	e59f0074 	ldr	r0, [pc, #116]	; 87800150 <FIQ_Handler+0x18>
878000d8:	e12fff10 	bx	r0

878000dc <NotUsed_Handler>:
878000dc:	e59f0070 	ldr	r0, [pc, #112]	; 87800154 <FIQ_Handler+0x1c>
878000e0:	e12fff10 	bx	r0

878000e4 <IRQ_Handler>:
878000e4:	e52de004 	push	{lr}		; (str lr, [sp, #-4]!)
878000e8:	e92d100f 	push	{r0, r1, r2, r3, ip}
878000ec:	e14f0000 	mrs	r0, SPSR
878000f0:	e52d0004 	push	{r0}		; (str r0, [sp, #-4]!)
878000f4:	ee9f1f10 	mrc	15, 4, r1, cr15, cr0, {0}
878000f8:	e2811a02 	add	r1, r1, #8192	; 0x2000
878000fc:	e591000c 	ldr	r0, [r1, #12]
87800100:	e92d0003 	push	{r0, r1}
87800104:	f1020013 	cps	#19
87800108:	e52de004 	push	{lr}		; (str lr, [sp, #-4]!)
8780010c:	e59f205c 	ldr	r2, [pc, #92]	; 87800170 <FIQ_Handler+0x38>
87800110:	e12fff32 	blx	r2
87800114:	e49de004 	pop	{lr}		; (ldr lr, [sp], #4)
87800118:	f1020012 	cps	#18
8780011c:	e8bd0003 	pop	{r0, r1}
87800120:	e5810010 	str	r0, [r1, #16]
87800124:	e49d0004 	pop	{r0}		; (ldr r0, [sp], #4)
87800128:	e16ff000 	msr	SPSR_fsxc, r0
8780012c:	e8bd100f 	pop	{r0, r1, r2, r3, ip}
87800130:	e49de004 	pop	{lr}		; (ldr lr, [sp], #4)
87800134:	e25ef004 	subs	pc, lr, #4

87800138 <FIQ_Handler>:
87800138:	e59f001c 	ldr	r0, [pc, #28]	; 8780015c <FIQ_Handler+0x24>
8780013c:	e12fff10 	bx	r0
87800140:	87800020 	strhi	r0, [r0, r0, lsr #32]
87800144:	878000bc 			; <UNDEFINED> instruction: 0x878000bc
87800148:	878000c4 	strhi	r0, [r0, r4, asr #1]
8780014c:	878000cc 	strhi	r0, [r0, ip, asr #1]
87800150:	878000d4 			; <UNDEFINED> instruction: 0x878000d4
87800154:	878000dc 			; <UNDEFINED> instruction: 0x878000dc
87800158:	878000e4 	strhi	r0, [r0, r4, ror #1]
8780015c:	87800138 			; <UNDEFINED> instruction: 0x87800138
87800160:	87800000 	strhi	r0, [r0, r0]
87800164:	80600000 	rsbhi	r0, r0, r0
87800168:	80400000 	subhi	r0, r0, r0
8780016c:	80200000 	eorhi	r0, r0, r0
87800170:	87800511 	usada8hi	r0, r1, r5, r0
87800174:	00001e41 	andeq	r1, r0, r1, asr #28
87800178:	61656100 	cmnvs	r5, r0, lsl #2
8780017c:	01006962 	tsteq	r0, r2, ror #18
87800180:	00000014 	andeq	r0, r0, r4, lsl r0
87800184:	412d3705 	teqmi	sp, r5, lsl #14
87800188:	070a0600 	streq	r0, [sl, -r0, lsl #12]
8780018c:	09010841 	stmdbeq	r1, {r0, r6, fp}
87800190:	00040a02 	andeq	r0, r4, r2, lsl #20

87800194 <clk_enable>:
87800194:	f44f 4380 	mov.w	r3, #16384	; 0x4000
87800198:	f04f 32ff 	mov.w	r2, #4294967295	; 0xffffffff
8780019c:	f2c0 230c 	movt	r3, #524	; 0x20c
878001a0:	669a      	str	r2, [r3, #104]	; 0x68
878001a2:	66da      	str	r2, [r3, #108]	; 0x6c
878001a4:	671a      	str	r2, [r3, #112]	; 0x70
878001a6:	675a      	str	r2, [r3, #116]	; 0x74
878001a8:	679a      	str	r2, [r3, #120]	; 0x78
878001aa:	67da      	str	r2, [r3, #124]	; 0x7c
878001ac:	f8c3 2080 	str.w	r2, [r3, #128]	; 0x80
878001b0:	4770      	bx	lr
878001b2:	bf00      	nop

878001b4 <led_init>:
878001b4:	2168      	movs	r1, #104	; 0x68
878001b6:	f44f 723d 	mov.w	r2, #756	; 0x2f4
878001ba:	f44f 4340 	mov.w	r3, #49152	; 0xc000
878001be:	b410      	push	{r4}
878001c0:	f2c0 2309 	movt	r3, #521	; 0x209
878001c4:	2405      	movs	r4, #5
878001c6:	f2c0 220e 	movt	r2, #526	; 0x20e
878001ca:	f2c0 210e 	movt	r1, #526	; 0x20e
878001ce:	f241 00b0 	movw	r0, #4272	; 0x10b0
878001d2:	600c      	str	r4, [r1, #0]
878001d4:	6010      	str	r0, [r2, #0]
878001d6:	685a      	ldr	r2, [r3, #4]
878001d8:	f85d 4b04 	ldr.w	r4, [sp], #4
878001dc:	f042 0208 	orr.w	r2, r2, #8
878001e0:	605a      	str	r2, [r3, #4]
878001e2:	681a      	ldr	r2, [r3, #0]
878001e4:	f022 0208 	bic.w	r2, r2, #8
878001e8:	601a      	str	r2, [r3, #0]
878001ea:	4770      	bx	lr

878001ec <led_on>:
878001ec:	f44f 4340 	mov.w	r3, #49152	; 0xc000
878001f0:	f2c0 2309 	movt	r3, #521	; 0x209
878001f4:	681a      	ldr	r2, [r3, #0]
878001f6:	f042 0208 	orr.w	r2, r2, #8
878001fa:	601a      	str	r2, [r3, #0]
878001fc:	4770      	bx	lr
878001fe:	bf00      	nop

87800200 <led_off>:
87800200:	f44f 4340 	mov.w	r3, #49152	; 0xc000
87800204:	f2c0 2309 	movt	r3, #521	; 0x209
87800208:	681a      	ldr	r2, [r3, #0]
8780020a:	f022 0208 	bic.w	r2, r2, #8
8780020e:	601a      	str	r2, [r3, #0]
87800210:	4770      	bx	lr
87800212:	bf00      	nop

87800214 <led_switch>:
87800214:	b940      	cbnz	r0, 87800228 <led_switch+0x14>
87800216:	f44f 4340 	mov.w	r3, #49152	; 0xc000
8780021a:	f2c0 2309 	movt	r3, #521	; 0x209
8780021e:	681a      	ldr	r2, [r3, #0]
87800220:	b919      	cbnz	r1, 8780022a <led_switch+0x16>
87800222:	f022 0208 	bic.w	r2, r2, #8
87800226:	601a      	str	r2, [r3, #0]
87800228:	4770      	bx	lr
8780022a:	f042 0208 	orr.w	r2, r2, #8
8780022e:	601a      	str	r2, [r3, #0]
87800230:	4770      	bx	lr
87800232:	bf00      	nop

87800234 <delay_short>:
87800234:	b082      	sub	sp, #8
87800236:	9001      	str	r0, [sp, #4]
87800238:	9b01      	ldr	r3, [sp, #4]
8780023a:	1e5a      	subs	r2, r3, #1
8780023c:	9201      	str	r2, [sp, #4]
8780023e:	2b00      	cmp	r3, #0
87800240:	d1fa      	bne.n	87800238 <delay_short+0x4>
87800242:	b002      	add	sp, #8
87800244:	4770      	bx	lr
87800246:	bf00      	nop

87800248 <delay>:
87800248:	b082      	sub	sp, #8
8780024a:	9001      	str	r0, [sp, #4]
8780024c:	9b01      	ldr	r3, [sp, #4]
8780024e:	1e5a      	subs	r2, r3, #1
87800250:	9201      	str	r2, [sp, #4]
87800252:	b153      	cbz	r3, 8780026a <delay+0x22>
87800254:	f240 73ff 	movw	r3, #2047	; 0x7ff
87800258:	461a      	mov	r2, r3
8780025a:	3b01      	subs	r3, #1
8780025c:	2a00      	cmp	r2, #0
8780025e:	d1fb      	bne.n	87800258 <delay+0x10>
87800260:	9b01      	ldr	r3, [sp, #4]
87800262:	1e5a      	subs	r2, r3, #1
87800264:	9201      	str	r2, [sp, #4]
87800266:	2b00      	cmp	r3, #0
87800268:	d1f4      	bne.n	87800254 <delay+0xc>
8780026a:	b002      	add	sp, #8
8780026c:	4770      	bx	lr
8780026e:	bf00      	nop

87800270 <beep_init>:
87800270:	210c      	movs	r1, #12
87800272:	2250      	movs	r2, #80	; 0x50
87800274:	f44f 4340 	mov.w	r3, #49152	; 0xc000
87800278:	b410      	push	{r4}
8780027a:	f2c0 230a 	movt	r3, #522	; 0x20a
8780027e:	2405      	movs	r4, #5
87800280:	f2c0 2229 	movt	r2, #553	; 0x229
87800284:	f2c0 2129 	movt	r1, #553	; 0x229
87800288:	f241 00b0 	movw	r0, #4272	; 0x10b0
8780028c:	600c      	str	r4, [r1, #0]
8780028e:	6010      	str	r0, [r2, #0]
87800290:	685a      	ldr	r2, [r3, #4]
87800292:	f85d 4b04 	ldr.w	r4, [sp], #4
87800296:	f042 0202 	orr.w	r2, r2, #2
8780029a:	605a      	str	r2, [r3, #4]
8780029c:	681a      	ldr	r2, [r3, #0]
8780029e:	f022 0202 	bic.w	r2, r2, #2
878002a2:	601a      	str	r2, [r3, #0]
878002a4:	4770      	bx	lr
878002a6:	bf00      	nop

878002a8 <beep_switch>:
878002a8:	f44f 4340 	mov.w	r3, #49152	; 0xc000
878002ac:	f2c0 230a 	movt	r3, #522	; 0x20a
878002b0:	681a      	ldr	r2, [r3, #0]
878002b2:	b918      	cbnz	r0, 878002bc <beep_switch+0x14>
878002b4:	f022 0202 	bic.w	r2, r2, #2
878002b8:	601a      	str	r2, [r3, #0]
878002ba:	4770      	bx	lr
878002bc:	f042 0202 	orr.w	r2, r2, #2
878002c0:	601a      	str	r2, [r3, #0]
878002c2:	4770      	bx	lr

878002c4 <key_init>:
878002c4:	228c      	movs	r2, #140	; 0x8c
878002c6:	f44f 7346 	mov.w	r3, #792	; 0x318
878002ca:	b510      	push	{r4, lr}
878002cc:	f2c0 220e 	movt	r2, #526	; 0x20e
878002d0:	b084      	sub	sp, #16
878002d2:	2405      	movs	r4, #5
878002d4:	f2c0 230e 	movt	r3, #526	; 0x20e
878002d8:	f24f 0180 	movw	r1, #61568	; 0xf080
878002dc:	f44f 4040 	mov.w	r0, #49152	; 0xc000
878002e0:	6014      	str	r4, [r2, #0]
878002e2:	f2c0 2009 	movt	r0, #521	; 0x209
878002e6:	6019      	str	r1, [r3, #0]
878002e8:	aa01      	add	r2, sp, #4
878002ea:	2300      	movs	r3, #0
878002ec:	2112      	movs	r1, #18
878002ee:	9301      	str	r3, [sp, #4]
878002f0:	f88d 3008 	strb.w	r3, [sp, #8]
878002f4:	9303      	str	r3, [sp, #12]
878002f6:	f000 f881 	bl	878003fc <gpio_init>
878002fa:	b004      	add	sp, #16
878002fc:	bd10      	pop	{r4, pc}
878002fe:	bf00      	nop

87800300 <read_key>:
87800300:	f44f 4040 	mov.w	r0, #49152	; 0xc000
87800304:	b508      	push	{r3, lr}
87800306:	2112      	movs	r1, #18
87800308:	f2c0 2009 	movt	r0, #521	; 0x209
8780030c:	f000 f82a 	bl	87800364 <gpio_read>
87800310:	bd08      	pop	{r3, pc}
87800312:	bf00      	nop

87800314 <key_get_value>:
87800314:	f44f 4040 	mov.w	r0, #49152	; 0xc000
87800318:	b508      	push	{r3, lr}
8780031a:	2112      	movs	r1, #18
8780031c:	f2c0 2009 	movt	r0, #521	; 0x209
87800320:	f000 f820 	bl	87800364 <gpio_read>
87800324:	b108      	cbz	r0, 8780032a <key_get_value+0x16>
87800326:	2000      	movs	r0, #0
87800328:	bd08      	pop	{r3, pc}
8780032a:	2064      	movs	r0, #100	; 0x64
8780032c:	f7ff ff8c 	bl	87800248 <delay>
87800330:	f44f 4040 	mov.w	r0, #49152	; 0xc000
87800334:	2112      	movs	r1, #18
87800336:	f2c0 2009 	movt	r0, #521	; 0x209
8780033a:	f000 f813 	bl	87800364 <gpio_read>
8780033e:	fab0 f080 	clz	r0, r0
87800342:	0940      	lsrs	r0, r0, #5
87800344:	bd08      	pop	{r3, pc}
87800346:	bf00      	nop

87800348 <gpio_write>:
87800348:	2301      	movs	r3, #1
8780034a:	b92a      	cbnz	r2, 87800358 <gpio_write+0x10>
8780034c:	6802      	ldr	r2, [r0, #0]
8780034e:	408b      	lsls	r3, r1
87800350:	ea22 0303 	bic.w	r3, r2, r3
87800354:	6003      	str	r3, [r0, #0]
87800356:	4770      	bx	lr
87800358:	6802      	ldr	r2, [r0, #0]
8780035a:	408b      	lsls	r3, r1
8780035c:	4313      	orrs	r3, r2
8780035e:	6003      	str	r3, [r0, #0]
87800360:	4770      	bx	lr
87800362:	bf00      	nop

87800364 <gpio_read>:
87800364:	6800      	ldr	r0, [r0, #0]
87800366:	40c8      	lsrs	r0, r1
87800368:	f000 0001 	and.w	r0, r0, #1
8780036c:	4770      	bx	lr
8780036e:	bf00      	nop

87800370 <gpio_enableint>:
87800370:	6943      	ldr	r3, [r0, #20]
87800372:	2201      	movs	r2, #1
87800374:	408a      	lsls	r2, r1
87800376:	4313      	orrs	r3, r2
87800378:	6143      	str	r3, [r0, #20]
8780037a:	4770      	bx	lr

8780037c <gpio_disableint>:
8780037c:	6943      	ldr	r3, [r0, #20]
8780037e:	2201      	movs	r2, #1
87800380:	408a      	lsls	r2, r1
87800382:	ea23 0302 	bic.w	r3, r3, r2
87800386:	6143      	str	r3, [r0, #20]
87800388:	4770      	bx	lr
8780038a:	bf00      	nop

8780038c <gpio_clearintflags>:
8780038c:	6983      	ldr	r3, [r0, #24]
8780038e:	2201      	movs	r2, #1
87800390:	408a      	lsls	r2, r1
87800392:	4313      	orrs	r3, r2
87800394:	6183      	str	r3, [r0, #24]
87800396:	4770      	bx	lr

87800398 <gpio_intconfig>:
87800398:	2a05      	cmp	r2, #5
8780039a:	d029      	beq.n	878003f0 <gpio_intconfig+0x58>
8780039c:	b430      	push	{r4, r5}
8780039e:	2301      	movs	r3, #1
878003a0:	69c4      	ldr	r4, [r0, #28]
878003a2:	408b      	lsls	r3, r1
878003a4:	290f      	cmp	r1, #15
878003a6:	f1a2 0202 	sub.w	r2, r2, #2
878003aa:	bf98      	it	ls
878003ac:	f100 050c 	addls.w	r5, r0, #12
878003b0:	ea24 0303 	bic.w	r3, r4, r3
878003b4:	bf88      	it	hi
878003b6:	3910      	subhi	r1, #16
878003b8:	61c3      	str	r3, [r0, #28]
878003ba:	bf8a      	itet	hi
878003bc:	f100 0510 	addhi.w	r5, r0, #16
878003c0:	68c4      	ldrls	r4, [r0, #12]
878003c2:	6904      	ldrhi	r4, [r0, #16]
878003c4:	2a02      	cmp	r2, #2
878003c6:	bf9d      	ittte	ls
878003c8:	f240 73e4 	movwls	r3, #2020	; 0x7e4
878003cc:	0049      	lslls	r1, r1, #1
878003ce:	f2c8 7380 	movtls	r3, #34688	; 0x8780
878003d2:	0049      	lslhi	r1, r1, #1
878003d4:	bf96      	itet	ls
878003d6:	f853 3022 	ldrls.w	r3, [r3, r2, lsl #2]
878003da:	2200      	movhi	r2, #0
878003dc:	fa03 f201 	lslls.w	r2, r3, r1
878003e0:	2303      	movs	r3, #3
878003e2:	408b      	lsls	r3, r1
878003e4:	ea24 0303 	bic.w	r3, r4, r3
878003e8:	4313      	orrs	r3, r2
878003ea:	602b      	str	r3, [r5, #0]
878003ec:	bc30      	pop	{r4, r5}
878003ee:	4770      	bx	lr
878003f0:	69c2      	ldr	r2, [r0, #28]
878003f2:	2301      	movs	r3, #1
878003f4:	408b      	lsls	r3, r1
878003f6:	4313      	orrs	r3, r2
878003f8:	61c3      	str	r3, [r0, #28]
878003fa:	4770      	bx	lr

878003fc <gpio_init>:
878003fc:	6813      	ldr	r3, [r2, #0]
878003fe:	b410      	push	{r4}
87800400:	b1bb      	cbz	r3, 87800432 <gpio_init+0x36>
87800402:	6844      	ldr	r4, [r0, #4]
87800404:	2301      	movs	r3, #1
87800406:	408b      	lsls	r3, r1
87800408:	431c      	orrs	r4, r3
8780040a:	6044      	str	r4, [r0, #4]
8780040c:	7914      	ldrb	r4, [r2, #4]
8780040e:	b13c      	cbz	r4, 87800420 <gpio_init+0x24>
87800410:	6804      	ldr	r4, [r0, #0]
87800412:	6892      	ldr	r2, [r2, #8]
87800414:	4323      	orrs	r3, r4
87800416:	f85d 4b04 	ldr.w	r4, [sp], #4
8780041a:	6003      	str	r3, [r0, #0]
8780041c:	f7ff bfbc 	b.w	87800398 <gpio_intconfig>
87800420:	6804      	ldr	r4, [r0, #0]
87800422:	6892      	ldr	r2, [r2, #8]
87800424:	ea24 0303 	bic.w	r3, r4, r3
87800428:	f85d 4b04 	ldr.w	r4, [sp], #4
8780042c:	6003      	str	r3, [r0, #0]
8780042e:	f7ff bfb3 	b.w	87800398 <gpio_intconfig>
87800432:	6844      	ldr	r4, [r0, #4]
87800434:	2301      	movs	r3, #1
87800436:	408b      	lsls	r3, r1
87800438:	6892      	ldr	r2, [r2, #8]
8780043a:	ea24 0303 	bic.w	r3, r4, r3
8780043e:	f85d 4b04 	ldr.w	r4, [sp], #4
87800442:	6043      	str	r3, [r0, #4]
87800444:	f7ff bfa8 	b.w	87800398 <gpio_intconfig>

87800448 <default_irq_handler>:
87800448:	e7fe      	b.n	87800448 <default_irq_handler>
8780044a:	bf00      	nop

8780044c <system_irqtable_init>:
8780044c:	b410      	push	{r4}
8780044e:	f240 4249 	movw	r2, #1097	; 0x449
87800452:	2400      	movs	r4, #0
87800454:	f240 73f0 	movw	r3, #2032	; 0x7f0
87800458:	4621      	mov	r1, r4
8780045a:	f2c8 7280 	movt	r2, #34688	; 0x8780
8780045e:	f2c8 7380 	movt	r3, #34688	; 0x8780
87800462:	f203 5004 	addw	r0, r3, #1284	; 0x504
87800466:	f843 4b04 	str.w	r4, [r3], #4
8780046a:	601a      	str	r2, [r3, #0]
8780046c:	3308      	adds	r3, #8
8780046e:	f843 1c04 	str.w	r1, [r3, #-4]
87800472:	4283      	cmp	r3, r0
87800474:	d1f9      	bne.n	8780046a <system_irqtable_init+0x1e>
87800476:	f85d 4b04 	ldr.w	r4, [sp], #4
8780047a:	4770      	bx	lr

8780047c <system_register_irqhandler>:
8780047c:	f240 73f0 	movw	r3, #2032	; 0x7f0
87800480:	f2c8 7380 	movt	r3, #34688	; 0x8780
87800484:	eb03 00c0 	add.w	r0, r3, r0, lsl #3
87800488:	6041      	str	r1, [r0, #4]
8780048a:	6082      	str	r2, [r0, #8]
8780048c:	4770      	bx	lr
8780048e:	bf00      	nop

87800490 <int_init>:
87800490:	b5f0      	push	{r4, r5, r6, r7, lr}
87800492:	ee9f 4f10 	mrc	15, 4, r4, cr15, cr0, {0}
87800496:	0c24      	lsrs	r4, r4, #16
87800498:	f241 0204 	movw	r2, #4100	; 0x1004
8780049c:	2300      	movs	r3, #0
8780049e:	0424      	lsls	r4, r4, #16
878004a0:	f04f 30ff 	mov.w	r0, #4294967295	; 0xffffffff
878004a4:	58a1      	ldr	r1, [r4, r2]
878004a6:	f001 011f 	and.w	r1, r1, #31
878004aa:	3101      	adds	r1, #1
878004ac:	f503 628c 	add.w	r2, r3, #1120	; 0x460
878004b0:	3301      	adds	r3, #1
878004b2:	4299      	cmp	r1, r3
878004b4:	f844 0022 	str.w	r0, [r4, r2, lsl #2]
878004b8:	d1f8      	bne.n	878004ac <int_init+0x1c>
878004ba:	f242 0604 	movw	r6, #8196	; 0x2004
878004be:	27f8      	movs	r7, #248	; 0xf8
878004c0:	f240 73f0 	movw	r3, #2032	; 0x7f0
878004c4:	f240 4249 	movw	r2, #1097	; 0x449
878004c8:	51a7      	str	r7, [r4, r6]
878004ca:	2500      	movs	r5, #0
878004cc:	f2c8 7380 	movt	r3, #34688	; 0x8780
878004d0:	f242 0708 	movw	r7, #8200	; 0x2008
878004d4:	f04f 0e02 	mov.w	lr, #2
878004d8:	f2c8 7280 	movt	r2, #34688	; 0x8780
878004dc:	f844 e007 	str.w	lr, [r4, r7]
878004e0:	f504 5680 	add.w	r6, r4, #4096	; 0x1000
878004e4:	f203 5004 	addw	r0, r3, #1284	; 0x504
878004e8:	4629      	mov	r1, r5
878004ea:	f843 5b04 	str.w	r5, [r3], #4
878004ee:	f504 5400 	add.w	r4, r4, #8192	; 0x2000
878004f2:	2501      	movs	r5, #1
878004f4:	6035      	str	r5, [r6, #0]
878004f6:	6025      	str	r5, [r4, #0]
878004f8:	601a      	str	r2, [r3, #0]
878004fa:	3308      	adds	r3, #8
878004fc:	f843 1c04 	str.w	r1, [r3, #-4]
87800500:	4283      	cmp	r3, r0
87800502:	d1f9      	bne.n	878004f8 <int_init+0x68>
87800504:	2300      	movs	r3, #0
87800506:	f2c8 7380 	movt	r3, #34688	; 0x8780
8780050a:	ee0c 3f10 	mcr	15, 0, r3, cr12, cr0, {0}
8780050e:	bdf0      	pop	{r4, r5, r6, r7, pc}

87800510 <system_irq_handler>:
87800510:	b538      	push	{r3, r4, r5, lr}
87800512:	f3c0 0309 	ubfx	r3, r0, #0, #10
87800516:	2b9f      	cmp	r3, #159	; 0x9f
87800518:	d80f      	bhi.n	8780053a <system_irq_handler+0x2a>
8780051a:	f240 74f0 	movw	r4, #2032	; 0x7f0
8780051e:	f2c8 7480 	movt	r4, #34688	; 0x8780
87800522:	eb04 02c3 	add.w	r2, r4, r3, lsl #3
87800526:	6823      	ldr	r3, [r4, #0]
87800528:	6855      	ldr	r5, [r2, #4]
8780052a:	3301      	adds	r3, #1
8780052c:	6023      	str	r3, [r4, #0]
8780052e:	b115      	cbz	r5, 87800536 <system_irq_handler+0x26>
87800530:	6891      	ldr	r1, [r2, #8]
87800532:	47a8      	blx	r5
87800534:	6823      	ldr	r3, [r4, #0]
87800536:	3b01      	subs	r3, #1
87800538:	6023      	str	r3, [r4, #0]
8780053a:	bd38      	pop	{r3, r4, r5, pc}

8780053c <gpio1_io18_irqheadnler>:
8780053c:	f640 42f4 	movw	r2, #3316	; 0xcf4
87800540:	b508      	push	{r3, lr}
87800542:	f2c8 7280 	movt	r2, #34688	; 0x8780
87800546:	6813      	ldr	r3, [r2, #0]
87800548:	fab3 f383 	clz	r3, r3
8780054c:	095b      	lsrs	r3, r3, #5
8780054e:	4618      	mov	r0, r3
87800550:	6013      	str	r3, [r2, #0]
87800552:	f7ff fea9 	bl	878002a8 <beep_switch>
87800556:	f44f 4040 	mov.w	r0, #49152	; 0xc000
8780055a:	2112      	movs	r1, #18
8780055c:	f2c0 2009 	movt	r0, #521	; 0x209
87800560:	e8bd 4008 	ldmia.w	sp!, {r3, lr}
87800564:	f7ff bf12 	b.w	8780038c <gpio_clearintflags>

87800568 <exti_init>:
87800568:	228c      	movs	r2, #140	; 0x8c
8780056a:	f44f 7346 	mov.w	r3, #792	; 0x318
8780056e:	b570      	push	{r4, r5, r6, lr}
87800570:	f2c0 220e 	movt	r2, #526	; 0x20e
87800574:	2005      	movs	r0, #5
87800576:	f2c0 230e 	movt	r3, #526	; 0x20e
8780057a:	f24f 0180 	movw	r1, #61568	; 0xf080
8780057e:	f44f 4540 	mov.w	r5, #49152	; 0xc000
87800582:	6010      	str	r0, [r2, #0]
87800584:	b084      	sub	sp, #16
87800586:	6019      	str	r1, [r3, #0]
87800588:	f2c0 2509 	movt	r5, #521	; 0x209
8780058c:	2304      	movs	r3, #4
8780058e:	2400      	movs	r4, #0
87800590:	4628      	mov	r0, r5
87800592:	eb0d 0203 	add.w	r2, sp, r3
87800596:	2112      	movs	r1, #18
87800598:	9401      	str	r4, [sp, #4]
8780059a:	f88d 4008 	strb.w	r4, [sp, #8]
8780059e:	9303      	str	r3, [sp, #12]
878005a0:	f7ff ff2c 	bl	878003fc <gpio_init>
878005a4:	ee9f 3f10 	mrc	15, 4, r3, cr15, cr0, {0}
878005a8:	0c1b      	lsrs	r3, r3, #16
878005aa:	f241 120c 	movw	r2, #4364	; 0x110c
878005ae:	2608      	movs	r6, #8
878005b0:	041b      	lsls	r3, r3, #16
878005b2:	4628      	mov	r0, r5
878005b4:	2112      	movs	r1, #18
878005b6:	509e      	str	r6, [r3, r2]
878005b8:	f7ff feda 	bl	87800370 <gpio_enableint>
878005bc:	f240 513d 	movw	r1, #1341	; 0x53d
878005c0:	4622      	mov	r2, r4
878005c2:	2063      	movs	r0, #99	; 0x63
878005c4:	f2c8 7180 	movt	r1, #34688	; 0x8780
878005c8:	f7ff ff58 	bl	8780047c <system_register_irqhandler>
878005cc:	b004      	add	sp, #16
878005ce:	bd70      	pop	{r4, r5, r6, pc}

878005d0 <epit_irqhandler>:
878005d0:	f640 42f8 	movw	r2, #3320	; 0xcf8
878005d4:	b508      	push	{r3, lr}
878005d6:	f2c8 7280 	movt	r2, #34688	; 0x8780
878005da:	2000      	movs	r0, #0
878005dc:	6813      	ldr	r3, [r2, #0]
878005de:	fab3 f383 	clz	r3, r3
878005e2:	095b      	lsrs	r3, r3, #5
878005e4:	4619      	mov	r1, r3
878005e6:	6013      	str	r3, [r2, #0]
878005e8:	f7ff fe14 	bl	87800214 <led_switch>
878005ec:	2300      	movs	r3, #0
878005ee:	f2c0 230d 	movt	r3, #525	; 0x20d
878005f2:	685a      	ldr	r2, [r3, #4]
878005f4:	f042 0201 	orr.w	r2, r2, #1
878005f8:	605a      	str	r2, [r3, #4]
878005fa:	bd08      	pop	{r3, pc}

878005fc <epit_init>:
878005fc:	0100      	lsls	r0, r0, #4
878005fe:	b538      	push	{r3, r4, r5, lr}
87800600:	2400      	movs	r4, #0
87800602:	f040 7080 	orr.w	r0, r0, #16777216	; 0x1000000
87800606:	f2c0 240d 	movt	r4, #525	; 0x20d
8780060a:	2200      	movs	r2, #0
8780060c:	f040 000e 	orr.w	r0, r0, #14
87800610:	6022      	str	r2, [r4, #0]
87800612:	6020      	str	r0, [r4, #0]
87800614:	60a1      	str	r1, [r4, #8]
87800616:	60e2      	str	r2, [r4, #12]
87800618:	ee9f 3f10 	mrc	15, 4, r3, cr15, cr0, {0}
8780061c:	0c1b      	lsrs	r3, r3, #16
8780061e:	f241 1008 	movw	r0, #4360	; 0x1108
87800622:	f04f 7580 	mov.w	r5, #16777216	; 0x1000000
87800626:	041b      	lsls	r3, r3, #16
87800628:	f240 51d1 	movw	r1, #1489	; 0x5d1
8780062c:	f2c8 7180 	movt	r1, #34688	; 0x8780
87800630:	501d      	str	r5, [r3, r0]
87800632:	2058      	movs	r0, #88	; 0x58
87800634:	f7ff ff22 	bl	8780047c <system_register_irqhandler>
87800638:	6823      	ldr	r3, [r4, #0]
8780063a:	f043 0301 	orr.w	r3, r3, #1
8780063e:	6023      	str	r3, [r4, #0]
87800640:	bd38      	pop	{r3, r4, r5, pc}
87800642:	bf00      	nop

87800644 <filtertimer_irqhandler>:
87800644:	b508      	push	{r3, lr}
87800646:	2300      	movs	r3, #0
87800648:	f2c0 230d 	movt	r3, #525	; 0x20d
8780064c:	685a      	ldr	r2, [r3, #4]
8780064e:	07d2      	lsls	r2, r2, #31
87800650:	d407      	bmi.n	87800662 <filtertimer_irqhandler+0x1e>
87800652:	2300      	movs	r3, #0
87800654:	f2c0 230d 	movt	r3, #525	; 0x20d
87800658:	685a      	ldr	r2, [r3, #4]
8780065a:	f042 0201 	orr.w	r2, r2, #1
8780065e:	605a      	str	r2, [r3, #4]
87800660:	bd08      	pop	{r3, pc}
87800662:	681a      	ldr	r2, [r3, #0]
87800664:	f44f 4040 	mov.w	r0, #49152	; 0xc000
87800668:	f2c0 2009 	movt	r0, #521	; 0x209
8780066c:	2112      	movs	r1, #18
8780066e:	f022 0201 	bic.w	r2, r2, #1
87800672:	601a      	str	r2, [r3, #0]
87800674:	f7ff fe76 	bl	87800364 <gpio_read>
87800678:	2800      	cmp	r0, #0
8780067a:	d1ea      	bne.n	87800652 <filtertimer_irqhandler+0xe>
8780067c:	f640 42fc 	movw	r2, #3324	; 0xcfc
87800680:	f2c8 7280 	movt	r2, #34688	; 0x8780
87800684:	7813      	ldrb	r3, [r2, #0]
87800686:	fab3 f383 	clz	r3, r3
8780068a:	095b      	lsrs	r3, r3, #5
8780068c:	4618      	mov	r0, r3
8780068e:	7013      	strb	r3, [r2, #0]
87800690:	f7ff fe0a 	bl	878002a8 <beep_switch>
87800694:	e7dd      	b.n	87800652 <filtertimer_irqhandler+0xe>
87800696:	bf00      	nop

87800698 <gpio1_16_31_irqhandler>:
87800698:	2300      	movs	r3, #0
8780069a:	b410      	push	{r4}
8780069c:	f2c0 230d 	movt	r3, #525	; 0x20d
878006a0:	f44f 5491 	mov.w	r4, #4640	; 0x1220
878006a4:	f2c0 040a 	movt	r4, #10
878006a8:	f44f 4040 	mov.w	r0, #49152	; 0xc000
878006ac:	681a      	ldr	r2, [r3, #0]
878006ae:	f2c0 2009 	movt	r0, #521	; 0x209
878006b2:	2112      	movs	r1, #18
878006b4:	f022 0201 	bic.w	r2, r2, #1
878006b8:	601a      	str	r2, [r3, #0]
878006ba:	609c      	str	r4, [r3, #8]
878006bc:	681a      	ldr	r2, [r3, #0]
878006be:	f85d 4b04 	ldr.w	r4, [sp], #4
878006c2:	f042 0201 	orr.w	r2, r2, #1
878006c6:	601a      	str	r2, [r3, #0]
878006c8:	f7ff be60 	b.w	8780038c <gpio_clearintflags>

878006cc <filtertimer_init>:
878006cc:	2300      	movs	r3, #0
878006ce:	210e      	movs	r1, #14
878006d0:	f2c0 230d 	movt	r3, #525	; 0x20d
878006d4:	2200      	movs	r2, #0
878006d6:	f2c0 1100 	movt	r1, #256	; 0x100
878006da:	b410      	push	{r4}
878006dc:	601a      	str	r2, [r3, #0]
878006de:	6019      	str	r1, [r3, #0]
878006e0:	6098      	str	r0, [r3, #8]
878006e2:	60da      	str	r2, [r3, #12]
878006e4:	ee9f 3f10 	mrc	15, 4, r3, cr15, cr0, {0}
878006e8:	0c1b      	lsrs	r3, r3, #16
878006ea:	f241 1008 	movw	r0, #4360	; 0x1108
878006ee:	f04f 7480 	mov.w	r4, #16777216	; 0x1000000
878006f2:	041b      	lsls	r3, r3, #16
878006f4:	f240 6145 	movw	r1, #1605	; 0x645
878006f8:	f2c8 7180 	movt	r1, #34688	; 0x8780
878006fc:	501c      	str	r4, [r3, r0]
878006fe:	2058      	movs	r0, #88	; 0x58
87800700:	f85d 4b04 	ldr.w	r4, [sp], #4
87800704:	f7ff beba 	b.w	8780047c <system_register_irqhandler>

87800708 <keyfilter_init>:
87800708:	228c      	movs	r2, #140	; 0x8c
8780070a:	f44f 7346 	mov.w	r3, #792	; 0x318
8780070e:	b570      	push	{r4, r5, r6, lr}
87800710:	f2c0 220e 	movt	r2, #526	; 0x20e
87800714:	2005      	movs	r0, #5
87800716:	f2c0 230e 	movt	r3, #526	; 0x20e
8780071a:	f24f 0180 	movw	r1, #61568	; 0xf080
8780071e:	f44f 4440 	mov.w	r4, #49152	; 0xc000
87800722:	6010      	str	r0, [r2, #0]
87800724:	b084      	sub	sp, #16
87800726:	6019      	str	r1, [r3, #0]
87800728:	f2c0 2409 	movt	r4, #521	; 0x209
8780072c:	2304      	movs	r3, #4
8780072e:	4620      	mov	r0, r4
87800730:	2500      	movs	r5, #0
87800732:	eb0d 0203 	add.w	r2, sp, r3
87800736:	2112      	movs	r1, #18
87800738:	9501      	str	r5, [sp, #4]
8780073a:	9303      	str	r3, [sp, #12]
8780073c:	f7ff fe5e 	bl	878003fc <gpio_init>
87800740:	ee9f 3f10 	mrc	15, 4, r3, cr15, cr0, {0}
87800744:	0c1b      	lsrs	r3, r3, #16
87800746:	f241 120c 	movw	r2, #4364	; 0x110c
8780074a:	2608      	movs	r6, #8
8780074c:	041b      	lsls	r3, r3, #16
8780074e:	4620      	mov	r0, r4
87800750:	2112      	movs	r1, #18
87800752:	509e      	str	r6, [r3, r2]
87800754:	f7ff fe0c 	bl	87800370 <gpio_enableint>
87800758:	f240 6199 	movw	r1, #1689	; 0x699
8780075c:	462a      	mov	r2, r5
8780075e:	f2c8 7180 	movt	r1, #34688	; 0x8780
87800762:	2063      	movs	r0, #99	; 0x63
87800764:	f7ff fe8a 	bl	8780047c <system_register_irqhandler>
87800768:	f44f 5091 	mov.w	r0, #4640	; 0x1220
8780076c:	f2c0 000a 	movt	r0, #10
87800770:	f7ff ffac 	bl	878006cc <filtertimer_init>
87800774:	b004      	add	sp, #16
87800776:	bd70      	pop	{r4, r5, r6, pc}

87800778 <filtertimer_stop>:
87800778:	2300      	movs	r3, #0
8780077a:	f2c0 230d 	movt	r3, #525	; 0x20d
8780077e:	681a      	ldr	r2, [r3, #0]
87800780:	f022 0201 	bic.w	r2, r2, #1
87800784:	601a      	str	r2, [r3, #0]
87800786:	4770      	bx	lr

87800788 <filtertimer_restart>:
87800788:	2300      	movs	r3, #0
8780078a:	f2c0 230d 	movt	r3, #525	; 0x20d
8780078e:	681a      	ldr	r2, [r3, #0]
87800790:	f022 0201 	bic.w	r2, r2, #1
87800794:	601a      	str	r2, [r3, #0]
87800796:	6098      	str	r0, [r3, #8]
87800798:	681a      	ldr	r2, [r3, #0]
8780079a:	f042 0201 	orr.w	r2, r2, #1
8780079e:	601a      	str	r2, [r3, #0]
878007a0:	4770      	bx	lr
878007a2:	bf00      	nop
878007a4:	0000      	movs	r0, r0
	...

878007a8 <__main_from_arm>:
878007a8:	e51ff004 	ldr	pc, [pc, #-4]	; 878007ac <__main_from_arm+0x4>
878007ac:	878007b1 			; <UNDEFINED> instruction: 0x878007b1

Disassembly of section .text.startup:

878007b0 <main>:
878007b0:	b510      	push	{r4, lr}
878007b2:	2400      	movs	r4, #0
878007b4:	f7ff fe6c 	bl	87800490 <int_init>
878007b8:	f7ff fcec 	bl	87800194 <clk_enable>
878007bc:	f7ff fcfa 	bl	878001b4 <led_init>
878007c0:	f7ff fd56 	bl	87800270 <beep_init>
878007c4:	f7ff fd7e 	bl	878002c4 <key_init>
878007c8:	f7ff ff9e 	bl	87800708 <keyfilter_init>
878007cc:	f084 0401 	eor.w	r4, r4, #1
878007d0:	2000      	movs	r0, #0
878007d2:	4621      	mov	r1, r4
878007d4:	f7ff fd1e 	bl	87800214 <led_switch>
878007d8:	f44f 70fa 	mov.w	r0, #500	; 0x1f4
878007dc:	f7ff fd34 	bl	87800248 <delay>
878007e0:	e7f4      	b.n	878007cc <main+0x1c>
878007e2:	bf00      	nop

Disassembly of section .rodata:

878007e4 <CSWTCH.13>:
878007e4:	00000001 	andeq	r0, r0, r1
878007e8:	00000002 	andeq	r0, r0, r2
878007ec:	00000003 	andeq	r0, r0, r3

Disassembly of section .bss:

878007f0 <irqNesting>:
878007f0:	00000000 	andeq	r0, r0, r0

878007f4 <irq_table>:
	...

87800cf4 <beep_status.8131>:
87800cf4:	00000000 	andeq	r0, r0, r0

87800cf8 <led_state.8092>:
87800cf8:	00000000 	andeq	r0, r0, r0

87800cfc <state.8145>:
	...

Disassembly of section .comment:

00000000 <.comment>:
   0:	3a434347 	bcc	10d0d24 <_start-0x8672f2dc>
   4:	694c2820 	stmdbvs	ip, {r5, fp, sp}^
   8:	6f72616e 	svcvs	0x0072616e
   c:	43434720 	movtmi	r4, #14112	; 0x3720
  10:	392e3420 	stmdbcc	lr!, {r5, sl, ip, sp}
  14:	3130322d 	teqcc	r0, sp, lsr #4
  18:	31302e37 	teqcc	r0, r7, lsr lr
  1c:	2e342029 	cdpcs	0, 3, cr2, cr4, cr9, {1}
  20:	00342e39 	eorseq	r2, r4, r9, lsr lr

Disassembly of section .ARM.attributes:

00000000 <.ARM.attributes>:
   0:	00003041 	andeq	r3, r0, r1, asr #32
   4:	61656100 	cmnvs	r5, r0, lsl #2
   8:	01006962 	tsteq	r0, r2, ror #18
   c:	00000026 	andeq	r0, r0, r6, lsr #32
  10:	412d3705 	teqmi	sp, r5, lsl #14
  14:	070a0600 	streq	r0, [sl, -r0, lsl #12]
  18:	09010841 	stmdbeq	r1, {r0, r6, fp}
  1c:	12040a02 	andne	r0, r4, #8192	; 0x2000
  20:	15011404 	strne	r1, [r1, #-1028]	; 0x404
  24:	18031701 	stmdane	r3, {r0, r8, r9, sl, ip}
  28:	1b021a01 	blne	86834 <_start-0x877797cc>
  2c:	22011c03 	andcs	r1, r1, #768	; 0x300
  30:	Address 0x0000000000000030 is out of bounds.

